; Function Attrs: nounwind uwtable
define internal void @_WriteData(ptr noundef %0, ptr noundef %1, i64 noundef %2) #0 {
  %.not = icmp eq i64 %2, 0
  br i1 %.not, label %10, label %4

4:                                                ; preds = %3
  %5 = getelementptr inbounds nuw i8, ptr %0, i64 592
  %6 = load ptr, ptr %5, align 8
  %7 = load ptr, ptr %6, align 8
  %8 = getelementptr inbounds nuw i8, ptr %7, i64 8
  %9 = load ptr, ptr %8, align 8
  tail call void %9(ptr noundef %0, ptr noundef %7, ptr noundef %1, i64 noundef %2) #7
  br label %10

10:                                               ; preds = %4, %3
  ret void
}